; Function Attrs: mustprogress nofree norecurse nosync nounwind willreturn memory(argmem: readwrite) uwtable
define noundef nonnull align 8 dereferenceable(136) ptr @_ZN3gmx21DensityFittingOptions15buildParametersEv(ptr noundef nonnull align 8 dereferenceable(656) %0) local_unnamed_addr #16 align 2 {
  %2 = getelementptr inbounds i8, ptr %0, i64 576
  %3 = load i64, ptr %2, align 8
  %4 = icmp slt i64 %3, 1
  br i1 %4, label %5, label %6

5:                                                ; preds = %1
  store i64 1, ptr %2, align 8
  br label %6

6:                                                ; preds = %5, %1
  %7 = getelementptr inbounds i8, ptr %0, i64 520
  ret ptr %7
}